target datalayout = "e-m:e-p270:32:32-p271:32:32-p272:64:64-i64:64-i128:128-f80:128-n8:16:32:64-S128"
target triple = "x86_64-pc-linux-gnu"

@.str.18 = private unnamed_addr constant [4 x i8] c"all\00", align 1
@.str.19 = private unnamed_addr constant [5 x i8] c"name\00", align 1
@.str.20 = private unnamed_addr constant [8 x i8] c"setting\00", align 1
@.str.21 = private unnamed_addr constant [12 x i8] c"description\00", align 1

; Function Attrs: nounwind uwtable
define dso_local ptr @GetPGVariableResultDesc(ptr noundef %0) #0 {
  %2 = alloca ptr, align 8
  %3 = alloca ptr, align 8
  %4 = alloca ptr, align 8
  store ptr %0, ptr %2, align 8
  call void @llvm.lifetime.start.p0(i64 8, ptr %3) #7
  %5 = load ptr, ptr %2, align 8
  %6 = call i32 @guc_name_compare(ptr noundef %5, ptr noundef @.str.18)
  %7 = icmp eq i32 %6, 0
  br i1 %7, label %8, label %13

8:                                                ; preds = %1
  %9 = call ptr @CreateTemplateTupleDesc(i32 noundef 3)
  store ptr %9, ptr %3, align 8
  %10 = load ptr, ptr %3, align 8
  call void @TupleDescInitEntry(ptr noundef %10, i16 noundef signext 1, ptr noundef @.str.19, i32 noundef 25, i32 noundef -1, i32 noundef 0)
  %11 = load ptr, ptr %3, align 8
  call void @TupleDescInitEntry(ptr noundef %11, i16 noundef signext 2, ptr noundef @.str.20, i32 noundef 25, i32 noundef -1, i32 noundef 0)
  %12 = load ptr, ptr %3, align 8
  call void @TupleDescInitEntry(ptr noundef %12, i16 noundef signext 3, ptr noundef @.str.21, i32 noundef 25, i32 noundef -1, i32 noundef 0)
  br label %19

13:                                               ; preds = %1
  call void @llvm.lifetime.start.p0(i64 8, ptr %4) #7
  %14 = load ptr, ptr %2, align 8
  %15 = call ptr @GetConfigOptionByName(ptr noundef %14, ptr noundef %4, i1 noundef zeroext false)
  %16 = call ptr @CreateTemplateTupleDesc(i32 noundef 1)
  store ptr %16, ptr %3, align 8
  %17 = load ptr, ptr %3, align 8
  %18 = load ptr, ptr %4, align 8
  call void @TupleDescInitEntry(ptr noundef %17, i16 noundef signext 1, ptr noundef %18, i32 noundef 25, i32 noundef -1, i32 noundef 0)
  call void @llvm.lifetime.end.p0(i64 8, ptr %4) #7
  br label %19

19:                                               ; preds = %13, %8
  %20 = load ptr, ptr %3, align 8
  call void @llvm.lifetime.end.p0(i64 8, ptr %3) #7
  ret ptr %20
}