; Function Attrs: nounwind uwtable
define dso_local noundef ptr @GetPGVariableResultDesc(ptr noundef %0) local_unnamed_addr #0 {
  %2 = alloca ptr, align 8
  %3 = tail call i32 @guc_name_compare(ptr noundef %0, ptr noundef nonnull @.str.18) #7
  %4 = icmp eq i32 %3, 0
  br i1 %4, label %5, label %7

5:                                                ; preds = %1
  %6 = tail call ptr @CreateTemplateTupleDesc(i32 noundef 3) #7
  tail call void @TupleDescInitEntry(ptr noundef %6, i16 noundef signext 1, ptr noundef nonnull @.str.19, i32 noundef 25, i32 noundef -1, i32 noundef 0) #7
  tail call void @TupleDescInitEntry(ptr noundef %6, i16 noundef signext 2, ptr noundef nonnull @.str.20, i32 noundef 25, i32 noundef -1, i32 noundef 0) #7
  tail call void @TupleDescInitEntry(ptr noundef %6, i16 noundef signext 3, ptr noundef nonnull @.str.21, i32 noundef 25, i32 noundef -1, i32 noundef 0) #7
  br label %11

7:                                                ; preds = %1
  call void @llvm.lifetime.start.p0(i64 8, ptr nonnull %2) #7
  %8 = call ptr @GetConfigOptionByName(ptr noundef %0, ptr noundef nonnull %2, i1 noundef zeroext false) #7
  %9 = call ptr @CreateTemplateTupleDesc(i32 noundef 1) #7
  %10 = load ptr, ptr %2, align 8
  call void @TupleDescInitEntry(ptr noundef %9, i16 noundef signext 1, ptr noundef %10, i32 noundef 25, i32 noundef -1, i32 noundef 0) #7
  call void @llvm.lifetime.end.p0(i64 8, ptr nonnull %2) #7
  br label %11

11:                                               ; preds = %7, %5
  %.0 = phi ptr [ %6, %5 ], [ %9, %7 ]
  ret ptr %.0
}